target datalayout = "e-m:e-p270:32:32-p271:32:32-p272:64:64-i64:64-i128:128-f80:128-n8:16:32:64-S128"
target triple = "x86_64-pc-linux-gnu"

%"class.Imf_3_4::TiledInputFile" = type { %"class.Imf_3_4::Context", %"class.std::shared_ptr.0" }
%"class.Imf_3_4::Context" = type { %"class.std::shared_ptr" }
%"class.std::shared_ptr" = type { %"class.std::__shared_ptr" }
%"class.std::__shared_ptr" = type { ptr, %"class.std::__shared_count" }
%"class.std::__shared_count" = type { ptr }
%"class.std::shared_ptr.0" = type { %"class.std::__shared_ptr.1" }
%"class.std::__shared_ptr.1" = type { ptr, %"class.std::__shared_count" }
%"struct.Imf_3_4::TiledInputFile::Data" = type { ptr, i32, i32, %"class.Imf_3_4::Header", i8, i32, i32, i32, i32, i32, i32, %"class.std::vector", %"class.Imf_3_4::FrameBuffer", %"class.std::vector.11", %"class.std::vector.16", %"class.std::mutex" }
%"class.Imf_3_4::Header" = type <{ %"class.std::map", i8, [7 x i8] }>
%"class.std::map" = type { %"class.std::_Rb_tree" }
%"class.std::_Rb_tree" = type { %"struct.std::_Rb_tree<Imf_3_4::Name, std::pair<const Imf_3_4::Name, Imf_3_4::Attribute *>, std::_Select1st<std::pair<const Imf_3_4::Name, Imf_3_4::Attribute *>>, std::less<Imf_3_4::Name>>::_Rb_tree_impl" }
%"struct.std::_Rb_tree<Imf_3_4::Name, std::pair<const Imf_3_4::Name, Imf_3_4::Attribute *>, std::_Select1st<std::pair<const Imf_3_4::Name, Imf_3_4::Attribute *>>, std::less<Imf_3_4::Name>>::_Rb_tree_impl" = type { [8 x i8], %"struct.std::_Rb_tree_header" }
%"struct.std::_Rb_tree_header" = type { %"struct.std::_Rb_tree_node_base", i64 }
%"struct.std::_Rb_tree_node_base" = type { i32, ptr, ptr, ptr }
%"class.std::vector" = type { %"struct.std::_Vector_base" }
%"struct.std::_Vector_base" = type { %"struct.std::_Vector_base<char, std::allocator<char>>::_Vector_impl" }
%"struct.std::_Vector_base<char, std::allocator<char>>::_Vector_impl" = type { %"struct.std::_Vector_base<char, std::allocator<char>>::_Vector_impl_data" }
%"struct.std::_Vector_base<char, std::allocator<char>>::_Vector_impl_data" = type { ptr, ptr, ptr }
%"class.Imf_3_4::FrameBuffer" = type { %"class.std::map.6" }
%"class.std::map.6" = type { %"class.std::_Rb_tree.7" }
%"class.std::_Rb_tree.7" = type { %"struct.std::_Rb_tree<Imf_3_4::Name, std::pair<const Imf_3_4::Name, Imf_3_4::Slice>, std::_Select1st<std::pair<const Imf_3_4::Name, Imf_3_4::Slice>>, std::less<Imf_3_4::Name>>::_Rb_tree_impl" }
%"struct.std::_Rb_tree<Imf_3_4::Name, std::pair<const Imf_3_4::Name, Imf_3_4::Slice>, std::_Select1st<std::pair<const Imf_3_4::Name, Imf_3_4::Slice>>, std::less<Imf_3_4::Name>>::_Rb_tree_impl" = type { [8 x i8], %"struct.std::_Rb_tree_header" }
%"class.std::vector.11" = type { %"struct.std::_Vector_base.12" }
%"struct.std::_Vector_base.12" = type { %"struct.std::_Vector_base<Imf_3_4::Slice, std::allocator<Imf_3_4::Slice>>::_Vector_impl" }
%"struct.std::_Vector_base<Imf_3_4::Slice, std::allocator<Imf_3_4::Slice>>::_Vector_impl" = type { %"struct.std::_Vector_base<Imf_3_4::Slice, std::allocator<Imf_3_4::Slice>>::_Vector_impl_data" }
%"struct.std::_Vector_base<Imf_3_4::Slice, std::allocator<Imf_3_4::Slice>>::_Vector_impl_data" = type { ptr, ptr, ptr }
%"class.std::vector.16" = type { %"struct.std::_Vector_base.17" }
%"struct.std::_Vector_base.17" = type { %"struct.std::_Vector_base<std::__cxx11::basic_string<char>, std::allocator<std::__cxx11::basic_string<char>>>::_Vector_impl" }
%"struct.std::_Vector_base<std::__cxx11::basic_string<char>, std::allocator<std::__cxx11::basic_string<char>>>::_Vector_impl" = type { %"struct.std::_Vector_base<std::__cxx11::basic_string<char>, std::allocator<std::__cxx11::basic_string<char>>>::_Vector_impl_data" }
%"struct.std::_Vector_base<std::__cxx11::basic_string<char>, std::allocator<std::__cxx11::basic_string<char>>>::_Vector_impl_data" = type { ptr, ptr, ptr }
%"class.std::mutex" = type { %"class.std::__mutex_base" }
%"class.std::__mutex_base" = type { %union.pthread_mutex_t }
%union.pthread_mutex_t = type { %struct.__pthread_mutex_s }
%struct.__pthread_mutex_s = type { i32, i32, i32, i32, i32, i16, i16, %struct.__pthread_internal_list }
%struct.__pthread_internal_list = type { ptr, ptr }

; Function Attrs: mustprogress nounwind uwtable
define linkonce_odr hidden noundef ptr @_ZNKSt12__shared_ptrIN7Imf_3_414TiledInputFile4DataELN9__gnu_cxx12_Lock_policyE2EE3getEv(ptr noundef nonnull align 8 dereferenceable(16) %0) #7 comdat align 2 {
  %2 = alloca ptr, align 8
  store ptr %0, ptr %2, align 8, !tbaa !64
  %3 = load ptr, ptr %2, align 8
  %4 = getelementptr inbounds nuw %"class.std::__shared_ptr.1", ptr %3, i32 0, i32 0
  %5 = load ptr, ptr %4, align 8, !tbaa !379
  ret ptr %5
}

; Function Attrs: mustprogress nounwind uwtable
define linkonce_odr hidden noundef ptr @_ZNKSt19__shared_ptr_accessIN7Imf_3_414TiledInputFile4DataELN9__gnu_cxx12_Lock_policyE2ELb0ELb0EE6_M_getEv(ptr noundef nonnull align 1 dereferenceable(1) %0) #7 comdat align 2 {
  %2 = alloca ptr, align 8
  store ptr %0, ptr %2, align 8, !tbaa !23
  %3 = load ptr, ptr %2, align 8
  %4 = call noundef ptr @_ZNKSt12__shared_ptrIN7Imf_3_414TiledInputFile4DataELN9__gnu_cxx12_Lock_policyE2EE3getEv(ptr noundef nonnull align 8 dereferenceable(16) %3) #3
  ret ptr %4
}

; Function Attrs: mustprogress nounwind uwtable
define linkonce_odr hidden noundef ptr @_ZNKSt19__shared_ptr_accessIN7Imf_3_414TiledInputFile4DataELN9__gnu_cxx12_Lock_policyE2ELb0ELb0EEptEv(ptr noundef nonnull align 1 dereferenceable(1) %0) #7 comdat align 2 {
  %2 = alloca ptr, align 8
  store ptr %0, ptr %2, align 8, !tbaa !23
  %3 = load ptr, ptr %2, align 8
  %4 = call noundef ptr @_ZNKSt19__shared_ptr_accessIN7Imf_3_414TiledInputFile4DataELN9__gnu_cxx12_Lock_policyE2ELb0ELb0EE6_M_getEv(ptr noundef nonnull align 1 dereferenceable(1) %3) #3
  ret ptr %4
}

; Function Attrs: mustprogress nounwind uwtable
define noundef i32 @_ZNK7Imf_3_414TiledInputFile10numYLevelsEv(ptr noundef nonnull align 8 dereferenceable(32) %0) #7 align 2 {
  %2 = alloca ptr, align 8
  store ptr %0, ptr %2, align 8, !tbaa !3
  %3 = load ptr, ptr %2, align 8
  %4 = getelementptr inbounds nuw %"class.Imf_3_4::TiledInputFile", ptr %3, i32 0, i32 1
  %5 = call noundef ptr @_ZNKSt19__shared_ptr_accessIN7Imf_3_414TiledInputFile4DataELN9__gnu_cxx12_Lock_policyE2ELb0ELb0EEptEv(ptr noundef nonnull align 1 dereferenceable(1) %4) #3
  %6 = getelementptr inbounds nuw %"struct.Imf_3_4::TiledInputFile::Data", ptr %5, i32 0, i32 10
  %7 = load i32, ptr %6, align 8, !tbaa !159
  ret i32 %7
}

; Function Attrs: mustprogress nounwind uwtable
define noundef i32 @_ZNK7Imf_3_414TiledInputFile10numXLevelsEv(ptr noundef nonnull align 8 dereferenceable(32) %0) #7 align 2 {
  %2 = alloca ptr, align 8
  store ptr %0, ptr %2, align 8, !tbaa !3
  %3 = load ptr, ptr %2, align 8
  %4 = getelementptr inbounds nuw %"class.Imf_3_4::TiledInputFile", ptr %3, i32 0, i32 1
  %5 = call noundef ptr @_ZNKSt19__shared_ptr_accessIN7Imf_3_414TiledInputFile4DataELN9__gnu_cxx12_Lock_policyE2ELb0ELb0EEptEv(ptr noundef nonnull align 1 dereferenceable(1) %4) #3
  %6 = getelementptr inbounds nuw %"struct.Imf_3_4::TiledInputFile::Data", ptr %5, i32 0, i32 9
  %7 = load i32, ptr %6, align 4, !tbaa !158
  ret i32 %7
}

; Function Attrs: mustprogress nounwind uwtable
define noundef i32 @_ZNK7Imf_3_414TiledInputFile9levelModeEv(ptr noundef nonnull align 8 dereferenceable(32) %0) #7 align 2 {
  %2 = alloca ptr, align 8
  store ptr %0, ptr %2, align 8, !tbaa !3
  %3 = load ptr, ptr %2, align 8
  %4 = getelementptr inbounds nuw %"class.Imf_3_4::TiledInputFile", ptr %3, i32 0, i32 1
  %5 = call noundef ptr @_ZNKSt19__shared_ptr_accessIN7Imf_3_414TiledInputFile4DataELN9__gnu_cxx12_Lock_policyE2ELb0ELb0EEptEv(ptr noundef nonnull align 1 dereferenceable(1) %4) #3
  %6 = getelementptr inbounds nuw %"struct.Imf_3_4::TiledInputFile::Data", ptr %5, i32 0, i32 7
  %7 = load i32, ptr %6, align 4, !tbaa !156
  ret i32 %7
}

; Function Attrs: mustprogress nounwind uwtable
define noundef zeroext i1 @_ZNK7Imf_3_414TiledInputFile12isValidLevelEii(ptr noundef nonnull align 8 dereferenceable(32) %0, i32 noundef %1, i32 noundef %2) #7 align 2 {
  %4 = alloca i1, align 1
  %5 = alloca ptr, align 8
  %6 = alloca i32, align 4
  %7 = alloca i32, align 4
  store ptr %0, ptr %5, align 8, !tbaa !3
  store i32 %1, ptr %6, align 4, !tbaa !12
  store i32 %2, ptr %7, align 4, !tbaa !12
  %8 = load ptr, ptr %5, align 8
  %9 = load i32, ptr %6, align 4, !tbaa !12
  %10 = icmp slt i32 %9, 0
  br i1 %10, label %14, label %11

11:                                               ; preds = %3
  %12 = load i32, ptr %7, align 4, !tbaa !12
  %13 = icmp slt i32 %12, 0
  br i1 %13, label %14, label %15

14:                                               ; preds = %11, %3
  store i1 false, ptr %4, align 1
  br label %33

15:                                               ; preds = %11
  %16 = call noundef i32 @_ZNK7Imf_3_414TiledInputFile9levelModeEv(ptr noundef nonnull align 8 dereferenceable(32) %8)
  %17 = icmp eq i32 %16, 1
  br i1 %17, label %18, label %23

18:                                               ; preds = %15
  %19 = load i32, ptr %6, align 4, !tbaa !12
  %20 = load i32, ptr %7, align 4, !tbaa !12
  %21 = icmp ne i32 %19, %20
  br i1 %21, label %22, label %23

22:                                               ; preds = %18
  store i1 false, ptr %4, align 1
  br label %33

23:                                               ; preds = %18, %15
  %24 = load i32, ptr %6, align 4, !tbaa !12
  %25 = call noundef i32 @_ZNK7Imf_3_414TiledInputFile10numXLevelsEv(ptr noundef nonnull align 8 dereferenceable(32) %8)
  %26 = icmp sge i32 %24, %25
  br i1 %26, label %31, label %27

27:                                               ; preds = %23
  %28 = load i32, ptr %7, align 4, !tbaa !12
  %29 = call noundef i32 @_ZNK7Imf_3_414TiledInputFile10numYLevelsEv(ptr noundef nonnull align 8 dereferenceable(32) %8)
  %30 = icmp sge i32 %28, %29
  br i1 %30, label %31, label %32

31:                                               ; preds = %27, %23
  store i1 false, ptr %4, align 1
  br label %33

32:                                               ; preds = %27
  store i1 true, ptr %4, align 1
  br label %33

33:                                               ; preds = %32, %31, %22, %14
  %34 = load i1, ptr %4, align 1
  ret i1 %34
}